target datalayout = "e-m:e-p270:32:32-p271:32:32-p272:64:64-i64:64-i128:128-f80:128-n8:16:32:64-S128"
target triple = "x86_64-pc-linux-gnu"

%"struct.std::array" = type { [14 x %class.QString] }
%class.QString = type { ptr }
%"class.QtPrivate::RefCount" = type { %class.QBasicAtomicInteger }
%class.QBasicAtomicInteger = type { %"struct.std::atomic" }
%"struct.std::atomic" = type { %"struct.std::__atomic_base" }
%"struct.std::__atomic_base" = type { i32 }
%struct.QArrayData = type { %"class.QtPrivate::RefCount", i32, i32, i64 }
%"struct.std::array.266" = type { [14 x i32] }
%class.RichParameter = type { ptr, %class.QString, ptr, %class.QString, %class.QString, i8, i8, %class.QString }
%"class.pymeshlab::FunctionParameter" = type { ptr, ptr }
%class.RichBool = type { %class.RichParameter }

@_ZN9pymeshlabL23saveCapabilitiesStringsE = internal global %"struct.std::array" zeroinitializer, align 8
@_ZN10QArrayData11shared_nullE = external global [2 x %struct.QArrayData], align 16
@_ZN9pymeshlabL16capabilitiesBitsE = internal constant %"struct.std::array.266" { [14 x i32] [i32 8, i32 2, i32 4, i32 32, i32 16, i32 65536, i32 512, i32 128, i32 256, i32 1024, i32 2048, i32 4096, i32 16384, i32 131072] }, align 4

; Function Attrs: mustprogress nounwind uwtable
define linkonce_odr noundef ptr @_ZN10QArrayData10sharedNullEv() #4 comdat align 2 {
  ret ptr @_ZN10QArrayData11shared_nullE
}

; Function Attrs: mustprogress nounwind uwtable
define linkonce_odr noundef ptr @_ZN15QTypedArrayDataItE10sharedNullEv() #4 comdat align 2 {
  %1 = call noundef ptr @_ZN10QArrayData10sharedNullEv() #3
  ret ptr %1
}

; Function Attrs: mustprogress nounwind uwtable
define linkonce_odr noundef nonnull align 8 dereferenceable(8) ptr @_ZNSt14__array_traitsI7QStringLm14EE6_S_refERA14_KS0_m(ptr noundef nonnull align 8 dereferenceable(112) %0, i64 noundef %1) #4 comdat align 2 {
  %3 = alloca ptr, align 8
  %4 = alloca i64, align 8
  store ptr %0, ptr %3, align 8
  store i64 %1, ptr %4, align 8
  %5 = load ptr, ptr %3, align 8
  %6 = load i64, ptr %4, align 8
  %7 = getelementptr inbounds [14 x %class.QString], ptr %5, i64 0, i64 %6
  ret ptr %7
}

; Function Attrs: mustprogress nounwind uwtable
define linkonce_odr noundef nonnull align 4 dereferenceable(4) ptr @_ZNSt14__array_traitsIiLm14EE6_S_refERA14_Kim(ptr noundef nonnull align 4 dereferenceable(56) %0, i64 noundef %1) #4 comdat align 2 {
  %3 = alloca ptr, align 8
  %4 = alloca i64, align 8
  store ptr %0, ptr %3, align 8
  store i64 %1, ptr %4, align 8
  %5 = load ptr, ptr %3, align 8
  %6 = load i64, ptr %4, align 8
  %7 = getelementptr inbounds [14 x i32], ptr %5, i64 0, i64 %6
  ret ptr %7
}

; Function Attrs: mustprogress nounwind uwtable
define linkonce_odr void @_ZN7QStringC2Ev(ptr noundef nonnull align 8 dereferenceable(8) %0) unnamed_addr #4 comdat align 2 {
  %2 = alloca ptr, align 8
  store ptr %0, ptr %2, align 8
  %3 = load ptr, ptr %2, align 8
  %4 = getelementptr inbounds %class.QString, ptr %3, i32 0, i32 0
  %5 = call noundef ptr @_ZN15QTypedArrayDataItE10sharedNullEv() #3
  store ptr %5, ptr %4, align 8
  ret void
}

; Function Attrs: mustprogress nounwind uwtable
define linkonce_odr noundef nonnull align 8 dereferenceable(8) ptr @_ZNKSt5arrayI7QStringLm14EEixEm(ptr noundef nonnull align 8 dereferenceable(112) %0, i64 noundef %1) #4 comdat align 2 {
  %3 = alloca ptr, align 8
  %4 = alloca i64, align 8
  store ptr %0, ptr %3, align 8
  store i64 %1, ptr %4, align 8
  %5 = load ptr, ptr %3, align 8
  %6 = getelementptr inbounds %"struct.std::array", ptr %5, i32 0, i32 0
  %7 = load i64, ptr %4, align 8
  %8 = call noundef nonnull align 8 dereferenceable(8) ptr @_ZNSt14__array_traitsI7QStringLm14EE6_S_refERA14_KS0_m(ptr noundef nonnull align 8 dereferenceable(112) %6, i64 noundef %7) #3
  ret ptr %8
}

; Function Attrs: mustprogress nounwind uwtable
define linkonce_odr noundef nonnull align 4 dereferenceable(4) ptr @_ZNKSt5arrayIiLm14EEixEm(ptr noundef nonnull align 4 dereferenceable(56) %0, i64 noundef %1) #4 comdat align 2 {
  %3 = alloca ptr, align 8
  %4 = alloca i64, align 8
  store ptr %0, ptr %3, align 8
  store i64 %1, ptr %4, align 8
  %5 = load ptr, ptr %3, align 8
  %6 = getelementptr inbounds %"struct.std::array.266", ptr %5, i32 0, i32 0
  %7 = load i64, ptr %4, align 8
  %8 = call noundef nonnull align 4 dereferenceable(4) ptr @_ZNSt14__array_traitsIiLm14EE6_S_refERA14_Kim(ptr noundef nonnull align 4 dereferenceable(56) %6, i64 noundef %7) #3
  ret ptr %8
}

; Function Attrs: mustprogress nounwind willreturn memory(none) uwtable
define linkonce_odr noundef i64 @_ZNKSt5arrayIiLm14EE4sizeEv(ptr noundef nonnull align 4 dereferenceable(56) %0) #13 comdat align 2 {
  %2 = alloca ptr, align 8
  store ptr %0, ptr %2, align 8
  ret i64 14
}

; Function Attrs: mustprogress uwtable
define void @_ZN9pymeshlab11FunctionSet20updateSaveParametersEP8IOPluginRK7QStringRNS_8FunctionE(ptr noundef nonnull align 8 dereferenceable(384) %0, ptr noundef %1, ptr noundef nonnull align 8 dereferenceable(8) %2, ptr noundef nonnull align 8 dereferenceable(80) %3) #5 align 2 personality ptr @__gxx_personality_v0 {
  %5 = alloca ptr, align 8
  %6 = alloca ptr, align 8
  %7 = alloca ptr, align 8
  %8 = alloca ptr, align 8
  %9 = alloca i32, align 4
  %10 = alloca i32, align 4
  %11 = alloca i32, align 4
  %12 = alloca i8, align 1
  %13 = alloca %class.RichBool, align 8
  %14 = alloca %class.QString, align 8
  %15 = alloca ptr, align 8
  %16 = alloca i32, align 4
  %17 = alloca %"class.pymeshlab::FunctionParameter", align 8
  store ptr %0, ptr %5, align 8
  store ptr %1, ptr %6, align 8
  store ptr %2, ptr %7, align 8
  store ptr %3, ptr %8, align 8
  %18 = load ptr, ptr %6, align 8
  %19 = load ptr, ptr %7, align 8
  %20 = load ptr, ptr %18, align 8
  %21 = getelementptr inbounds ptr, ptr %20, i64 8
  %22 = load ptr, ptr %21, align 8
  call void %22(ptr noundef nonnull align 8 dereferenceable(16) %18, ptr noundef nonnull align 8 dereferenceable(8) %19, ptr noundef nonnull align 4 dereferenceable(4) %9, ptr noundef nonnull align 4 dereferenceable(4) %10)
  store i32 0, ptr %11, align 4
  br label %23

23:                                               ; preds = %74, %4
  %24 = load i32, ptr %11, align 4
  %25 = zext i32 %24 to i64
  %26 = call noundef i64 @_ZNKSt5arrayIiLm14EE4sizeEv(ptr noundef nonnull align 4 dereferenceable(56) @_ZN9pymeshlabL16capabilitiesBitsE) #21
  %27 = icmp ult i64 %25, %26
  br i1 %27, label %28, label %77

28:                                               ; preds = %23
  %29 = load i32, ptr %9, align 4
  %30 = load i32, ptr %11, align 4
  %31 = zext i32 %30 to i64
  %32 = call noundef nonnull align 4 dereferenceable(4) ptr @_ZNKSt5arrayIiLm14EEixEm(ptr noundef nonnull align 4 dereferenceable(56) @_ZN9pymeshlabL16capabilitiesBitsE, i64 noundef %31) #3
  %33 = load i32, ptr %32, align 4
  %34 = and i32 %29, %33
  %35 = icmp ne i32 %34, 0
  br i1 %35, label %36, label %73

36:                                               ; preds = %28
  %37 = load i32, ptr %10, align 4
  %38 = load i32, ptr %11, align 4
  %39 = zext i32 %38 to i64
  %40 = call noundef nonnull align 4 dereferenceable(4) ptr @_ZNKSt5arrayIiLm14EEixEm(ptr noundef nonnull align 4 dereferenceable(56) @_ZN9pymeshlabL16capabilitiesBitsE, i64 noundef %39) #3
  %41 = load i32, ptr %40, align 4
  %42 = and i32 %37, %41
  %43 = icmp ne i32 %42, 0
  %44 = zext i1 %43 to i8
  store i8 %44, ptr %12, align 1
  %45 = load i32, ptr %11, align 4
  %46 = zext i32 %45 to i64
  %47 = call noundef nonnull align 8 dereferenceable(8) ptr @_ZNKSt5arrayI7QStringLm14EEixEm(ptr noundef nonnull align 8 dereferenceable(112) @_ZN9pymeshlabL23saveCapabilitiesStringsE, i64 noundef %46) #3
  %48 = load i8, ptr %12, align 1
  %49 = trunc i8 %48 to i1
  %50 = load i32, ptr %11, align 4
  %51 = zext i32 %50 to i64
  %52 = call noundef nonnull align 8 dereferenceable(8) ptr @_ZNKSt5arrayI7QStringLm14EEixEm(ptr noundef nonnull align 8 dereferenceable(112) @_ZN9pymeshlabL23saveCapabilitiesStringsE, i64 noundef %51) #3
  %53 = load i32, ptr %11, align 4
  %54 = zext i32 %53 to i64
  %55 = call noundef nonnull align 8 dereferenceable(8) ptr @_ZNKSt5arrayI7QStringLm14EEixEm(ptr noundef nonnull align 8 dereferenceable(112) @_ZN9pymeshlabL23saveCapabilitiesStringsE, i64 noundef %54) #3
  call void @_ZN7QStringC2Ev(ptr noundef nonnull align 8 dereferenceable(8) %14) #3
  invoke void @_ZN8RichBoolC1ERK7QStringbS2_S2_bS2_(ptr noundef nonnull align 8 dereferenceable(56) %13, ptr noundef nonnull align 8 dereferenceable(8) %47, i1 noundef zeroext %49, ptr noundef nonnull align 8 dereferenceable(8) %52, ptr noundef nonnull align 8 dereferenceable(8) %55, i1 noundef zeroext false, ptr noundef nonnull align 8 dereferenceable(8) %14)
          to label %56 unwind label %60

56:                                               ; preds = %36
  call void @_ZN7QStringD2Ev(ptr noundef nonnull align 8 dereferenceable(8) %14) #3
  invoke void @_ZN9pymeshlab17FunctionParameterC1ERK13RichParameter(ptr noundef nonnull align 8 dereferenceable(16) %17, ptr noundef nonnull align 8 dereferenceable(56) %13)
          to label %57 unwind label %64

57:                                               ; preds = %56
  %58 = load ptr, ptr %8, align 8
  invoke void @_ZN9pymeshlab8Function12addParameterERKNS_17FunctionParameterE(ptr noundef nonnull align 8 dereferenceable(80) %58, ptr noundef nonnull align 8 dereferenceable(16) %17)
          to label %59 unwind label %68

59:                                               ; preds = %57
  call void @_ZN9pymeshlab17FunctionParameterD1Ev(ptr noundef nonnull align 8 dereferenceable(16) %17) #3
  call void @_ZN8RichBoolD1Ev(ptr noundef nonnull align 8 dereferenceable(56) %13) #3
  br label %73

60:                                               ; preds = %36
  %61 = landingpad { ptr, i32 }
          cleanup
  %62 = extractvalue { ptr, i32 } %61, 0
  store ptr %62, ptr %15, align 8
  %63 = extractvalue { ptr, i32 } %61, 1
  store i32 %63, ptr %16, align 4
  call void @_ZN7QStringD2Ev(ptr noundef nonnull align 8 dereferenceable(8) %14) #3
  br label %78

64:                                               ; preds = %56
  %65 = landingpad { ptr, i32 }
          cleanup
  %66 = extractvalue { ptr, i32 } %65, 0
  store ptr %66, ptr %15, align 8
  %67 = extractvalue { ptr, i32 } %65, 1
  store i32 %67, ptr %16, align 4
  br label %72

68:                                               ; preds = %57
  %69 = landingpad { ptr, i32 }
          cleanup
  %70 = extractvalue { ptr, i32 } %69, 0
  store ptr %70, ptr %15, align 8
  %71 = extractvalue { ptr, i32 } %69, 1
  store i32 %71, ptr %16, align 4
  call void @_ZN9pymeshlab17FunctionParameterD1Ev(ptr noundef nonnull align 8 dereferenceable(16) %17) #3
  br label %72

72:                                               ; preds = %68, %64
  call void @_ZN8RichBoolD1Ev(ptr noundef nonnull align 8 dereferenceable(56) %13) #3
  br label %78

73:                                               ; preds = %59, %28
  br label %74

74:                                               ; preds = %73
  %75 = load i32, ptr %11, align 4
  %76 = add i32 %75, 1
  store i32 %76, ptr %11, align 4
  br label %23, !llvm.loop !21

77:                                               ; preds = %23
  ret void

78:                                               ; preds = %72, %60
  %79 = load ptr, ptr %15, align 8
  %80 = load i32, ptr %16, align 4
  %81 = insertvalue { ptr, i32 } poison, ptr %79, 0
  %82 = insertvalue { ptr, i32 } %81, i32 %80, 1
  resume { ptr, i32 } %82
}