; Function Attrs: mustprogress uwtable
define void @_ZN9pymeshlab11FunctionSet20updateSaveParametersEP8IOPluginRK7QStringRNS_8FunctionE(ptr nocapture noundef nonnull readnone align 8 dereferenceable(384) %0, ptr noundef %1, ptr noundef nonnull align 8 dereferenceable(8) %2, ptr noundef nonnull align 8 dereferenceable(80) %3) local_unnamed_addr #9 align 2 personality ptr @__gxx_personality_v0 {
  %5 = alloca i32, align 4
  %6 = alloca i32, align 4
  %7 = alloca %class.RichBool, align 8
  %8 = alloca %class.QString, align 8
  %9 = alloca %"class.pymeshlab::FunctionParameter", align 8
  %10 = load ptr, ptr %1, align 8
  %11 = getelementptr inbounds i8, ptr %10, i64 64
  %12 = load ptr, ptr %11, align 8
  call void %12(ptr noundef nonnull align 8 dereferenceable(16) %1, ptr noundef nonnull align 8 dereferenceable(8) %2, ptr noundef nonnull align 4 dereferenceable(4) %5, ptr noundef nonnull align 4 dereferenceable(4) %6)
  br label %13

13:                                               ; preds = %4, %37
  %indvars.iv = phi i64 [ 0, %4 ], [ %indvars.iv.next, %37 ]
  %14 = load i32, ptr %5, align 4
  %15 = getelementptr inbounds [14 x i32], ptr @_ZN9pymeshlabL16capabilitiesBitsE, i64 0, i64 %indvars.iv
  %16 = load i32, ptr %15, align 4
  %17 = and i32 %16, %14
  %.not = icmp eq i32 %17, 0
  br i1 %.not, label %37, label %18

18:                                               ; preds = %13
  %19 = load i32, ptr %6, align 4
  %20 = and i32 %19, %16
  %21 = icmp ne i32 %20, 0
  %22 = getelementptr inbounds [14 x %class.QString], ptr @_ZN9pymeshlabL23saveCapabilitiesStringsE, i64 0, i64 %indvars.iv
  store ptr @_ZN10QArrayData11shared_nullE, ptr %8, align 8
  invoke void @_ZN8RichBoolC1ERK7QStringbS2_S2_bS2_(ptr noundef nonnull align 8 dereferenceable(56) %7, ptr noundef nonnull align 8 dereferenceable(8) %22, i1 noundef zeroext %21, ptr noundef nonnull align 8 dereferenceable(8) %22, ptr noundef nonnull align 8 dereferenceable(8) %22, i1 noundef zeroext false, ptr noundef nonnull align 8 dereferenceable(8) %8)
          to label %23 unwind label %30

23:                                               ; preds = %18
  %24 = load ptr, ptr %8, align 8
  %25 = load atomic i32, ptr %24 monotonic, align 4
  switch i32 %25, label %_ZN9QtPrivate8RefCount5derefEv.exit.i [
    i32 0, label %_ZN9QtPrivate8RefCount5derefEv.exit.thread2.i
    i32 -1, label %_ZN7QStringD2Ev.exit
  ]

_ZN9QtPrivate8RefCount5derefEv.exit.i:            ; preds = %23
  %26 = atomicrmw sub ptr %24, i32 1 seq_cst, align 4
  %.not.i = icmp eq i32 %26, 1
  br i1 %.not.i, label %_ZN9QtPrivate8RefCount5derefEv.exit._ZN9QtPrivate8RefCount5derefEv.exit.thread2_crit_edge.i, label %_ZN7QStringD2Ev.exit

_ZN9QtPrivate8RefCount5derefEv.exit._ZN9QtPrivate8RefCount5derefEv.exit.thread2_crit_edge.i: ; preds = %_ZN9QtPrivate8RefCount5derefEv.exit.i
  %.pre.i = load ptr, ptr %8, align 8
  br label %_ZN9QtPrivate8RefCount5derefEv.exit.thread2.i

_ZN9QtPrivate8RefCount5derefEv.exit.thread2.i:    ; preds = %_ZN9QtPrivate8RefCount5derefEv.exit._ZN9QtPrivate8RefCount5derefEv.exit.thread2_crit_edge.i, %23
  %27 = phi ptr [ %.pre.i, %_ZN9QtPrivate8RefCount5derefEv.exit._ZN9QtPrivate8RefCount5derefEv.exit.thread2_crit_edge.i ], [ %24, %23 ]
  call void @_ZN10QArrayData10deallocateEPS_mm(ptr noundef %27, i64 noundef 2, i64 noundef 8) #20
  br label %_ZN7QStringD2Ev.exit

_ZN7QStringD2Ev.exit:                             ; preds = %23, %_ZN9QtPrivate8RefCount5derefEv.exit.i, %_ZN9QtPrivate8RefCount5derefEv.exit.thread2.i
  invoke void @_ZN9pymeshlab17FunctionParameterC1ERK13RichParameter(ptr noundef nonnull align 8 dereferenceable(16) %9, ptr noundef nonnull align 8 dereferenceable(56) %7)
          to label %28 unwind label %32

28:                                               ; preds = %_ZN7QStringD2Ev.exit
  invoke void @_ZN9pymeshlab8Function12addParameterERKNS_17FunctionParameterE(ptr noundef nonnull align 8 dereferenceable(80) %3, ptr noundef nonnull align 8 dereferenceable(16) %9)
          to label %29 unwind label %34

29:                                               ; preds = %28
  call void @_ZN9pymeshlab17FunctionParameterD1Ev(ptr noundef nonnull align 8 dereferenceable(16) %9) #20
  call void @_ZN8RichBoolD1Ev(ptr noundef nonnull align 8 dereferenceable(56) %7) #20
  br label %37

30:                                               ; preds = %18
  %31 = landingpad { ptr, i32 }
          cleanup
  call void @_ZN7QStringD2Ev(ptr noundef nonnull align 8 dereferenceable(8) %8) #20
  br label %39

32:                                               ; preds = %_ZN7QStringD2Ev.exit
  %33 = landingpad { ptr, i32 }
          cleanup
  br label %36

34:                                               ; preds = %28
  %35 = landingpad { ptr, i32 }
          cleanup
  call void @_ZN9pymeshlab17FunctionParameterD1Ev(ptr noundef nonnull align 8 dereferenceable(16) %9) #20
  br label %36

36:                                               ; preds = %34, %32
  %.pn = phi { ptr, i32 } [ %35, %34 ], [ %33, %32 ]
  call void @_ZN8RichBoolD1Ev(ptr noundef nonnull align 8 dereferenceable(56) %7) #20
  br label %39

37:                                               ; preds = %13, %29
  %indvars.iv.next = add nuw nsw i64 %indvars.iv, 1
  %exitcond.not = icmp eq i64 %indvars.iv.next, 14
  br i1 %exitcond.not, label %38, label %13, !llvm.loop !36

38:                                               ; preds = %37
  ret void

39:                                               ; preds = %36, %30
  %.pn.pn = phi { ptr, i32 } [ %.pn, %36 ], [ %31, %30 ]
  resume { ptr, i32 } %.pn.pn
}